target datalayout = "e-m:e-p270:32:32-p271:32:32-p272:64:64-i64:64-i128:128-f80:128-n8:16:32:64-S128"
target triple = "x86_64-pc-linux-gnu"

%struct.FT_FaceRec_ = type { i64, i64, i64, i64, i64, ptr, ptr, i32, ptr, i32, ptr, %struct.FT_Generic_, %struct.FT_BBox_, i16, i16, i16, i16, i16, i16, i16, i16, ptr, ptr, ptr, ptr, ptr, ptr, %struct.FT_ListRec_, %struct.FT_Generic_, ptr, ptr }
%struct.FT_BBox_ = type { i64, i64, i64, i64 }
%struct.FT_ListRec_ = type { ptr, ptr }
%struct.FT_Generic_ = type { ptr, ptr }
%struct.FT_ModuleRec_ = type { ptr, ptr, ptr }
%struct.FT_Module_Class_ = type { i64, i64, ptr, i64, i64, ptr, ptr, ptr, ptr }
%struct.FT_Service_PsInfoRec_ = type { ptr, ptr, ptr, ptr, ptr }

@.str = private unnamed_addr constant [16 x i8] c"postscript-info\00", align 1

; Function Attrs: nounwind uwtable
define i32 @FT_Has_PS_Glyph_Names(ptr noundef %0) #0 {
  %2 = alloca ptr, align 8
  %3 = alloca i32, align 4
  %4 = alloca ptr, align 8
  %5 = alloca ptr, align 8
  %6 = alloca ptr, align 8
  store ptr %0, ptr %2, align 8, !tbaa !3
  call void @llvm.lifetime.start.p0(i64 4, ptr %3) #2
  store i32 0, ptr %3, align 4, !tbaa !42
  call void @llvm.lifetime.start.p0(i64 8, ptr %4) #2
  %7 = load ptr, ptr %2, align 8, !tbaa !3
  %8 = icmp ne ptr %7, null
  br i1 %8, label %9, label %46

9:                                                ; preds = %1
  br label %10

10:                                               ; preds = %9
  call void @llvm.lifetime.start.p0(i64 8, ptr %5) #2
  %11 = load ptr, ptr %2, align 8, !tbaa !3
  %12 = getelementptr inbounds nuw %struct.FT_FaceRec_, ptr %11, i32 0, i32 24
  %13 = load ptr, ptr %12, align 8, !tbaa !10
  store ptr %13, ptr %5, align 8, !tbaa !29
  call void @llvm.lifetime.start.p0(i64 8, ptr %6) #2
  store ptr null, ptr %6, align 8, !tbaa !31
  %14 = load ptr, ptr %5, align 8, !tbaa !29
  %15 = getelementptr inbounds nuw %struct.FT_ModuleRec_, ptr %14, i32 0, i32 0
  %16 = load ptr, ptr %15, align 8, !tbaa !32
  %17 = getelementptr inbounds nuw %struct.FT_Module_Class_, ptr %16, i32 0, i32 8
  %18 = load ptr, ptr %17, align 8, !tbaa !36
  %19 = icmp ne ptr %18, null
  br i1 %19, label %20, label %28

20:                                               ; preds = %10
  %21 = load ptr, ptr %5, align 8, !tbaa !29
  %22 = getelementptr inbounds nuw %struct.FT_ModuleRec_, ptr %21, i32 0, i32 0
  %23 = load ptr, ptr %22, align 8, !tbaa !32
  %24 = getelementptr inbounds nuw %struct.FT_Module_Class_, ptr %23, i32 0, i32 8
  %25 = load ptr, ptr %24, align 8, !tbaa !36
  %26 = load ptr, ptr %5, align 8, !tbaa !29
  %27 = call ptr %25(ptr noundef %26, ptr noundef @.str)
  store ptr %27, ptr %6, align 8, !tbaa !31
  br label %28

28:                                               ; preds = %20, %10
  %29 = load ptr, ptr %6, align 8, !tbaa !31
  store ptr %29, ptr %4, align 8, !tbaa !38
  call void @llvm.lifetime.end.p0(i64 8, ptr %6) #2
  call void @llvm.lifetime.end.p0(i64 8, ptr %5) #2
  br label %30

30:                                               ; preds = %28
  br label %31

31:                                               ; preds = %30
  %32 = load ptr, ptr %4, align 8, !tbaa !38
  %33 = icmp ne ptr %32, null
  br i1 %33, label %34, label %45

34:                                               ; preds = %31
  %35 = load ptr, ptr %4, align 8, !tbaa !38
  %36 = getelementptr inbounds nuw %struct.FT_Service_PsInfoRec_, ptr %35, i32 0, i32 2
  %37 = load ptr, ptr %36, align 8, !tbaa !43
  %38 = icmp ne ptr %37, null
  br i1 %38, label %39, label %45

39:                                               ; preds = %34
  %40 = load ptr, ptr %4, align 8, !tbaa !38
  %41 = getelementptr inbounds nuw %struct.FT_Service_PsInfoRec_, ptr %40, i32 0, i32 2
  %42 = load ptr, ptr %41, align 8, !tbaa !43
  %43 = load ptr, ptr %2, align 8, !tbaa !3
  %44 = call i32 %42(ptr noundef %43)
  store i32 %44, ptr %3, align 4, !tbaa !42
  br label %45

45:                                               ; preds = %39, %34, %31
  br label %46

46:                                               ; preds = %45, %1
  %47 = load i32, ptr %3, align 4, !tbaa !42
  call void @llvm.lifetime.end.p0(i64 8, ptr %4) #2
  call void @llvm.lifetime.end.p0(i64 4, ptr %3) #2
  ret i32 %47
}