; Function Attrs: nounwind uwtable
define i32 @FT_Has_PS_Glyph_Names(ptr noundef %0) local_unnamed_addr #0 {
  %.not = icmp eq ptr %0, null
  br i1 %.not, label %.thread, label %2

2:                                                ; preds = %1
  %3 = getelementptr inbounds nuw i8, ptr %0, i64 176
  %4 = load ptr, ptr %3, align 8, !tbaa !3
  %5 = load ptr, ptr %4, align 8, !tbaa !25
  %6 = getelementptr inbounds nuw i8, ptr %5, i64 64
  %7 = load ptr, ptr %6, align 8, !tbaa !29
  %.not14 = icmp eq ptr %7, null
  br i1 %.not14, label %.thread, label %8

8:                                                ; preds = %2
  %9 = tail call ptr %7(ptr noundef nonnull %4, ptr noundef nonnull @.str) #1
  %.not15 = icmp eq ptr %9, null
  br i1 %.not15, label %.thread, label %10

10:                                               ; preds = %8
  %11 = getelementptr inbounds nuw i8, ptr %9, i64 16
  %12 = load ptr, ptr %11, align 8, !tbaa !33
  %.not16 = icmp eq ptr %12, null
  br i1 %.not16, label %.thread, label %13

13:                                               ; preds = %10
  %14 = tail call i32 %12(ptr noundef nonnull %0) #1
  br label %.thread

.thread:                                          ; preds = %2, %8, %10, %13, %1
  %.010 = phi i32 [ %14, %13 ], [ 0, %10 ], [ 0, %8 ], [ 0, %1 ], [ 0, %2 ]
  ret i32 %.010
}